; Function Attrs: uwtable
define void @_ZTv0_n40_N3nix10LocalStore9findRootsB5cxx11Eb(ptr dead_on_unwind noalias nonnull writable sret(%"class.std::unordered_map") align 8 %0, ptr noundef %1, i1 noundef zeroext %2) unnamed_addr #4 align 2 personality ptr @__gxx_personality_v0 {
  %4 = load ptr, ptr %1, align 8
  %5 = getelementptr inbounds i8, ptr %4, i64 -40
  %6 = load i64, ptr %5, align 8
  %7 = getelementptr inbounds i8, ptr %1, i64 %6
  %8 = getelementptr inbounds i8, ptr %0, i64 48
  store ptr %8, ptr %0, align 8, !alias.scope !68
  %9 = getelementptr inbounds i8, ptr %0, i64 8
  store i64 1, ptr %9, align 8, !alias.scope !68
  %10 = getelementptr inbounds i8, ptr %0, i64 16
  %11 = getelementptr inbounds i8, ptr %0, i64 32
  tail call void @llvm.memset.p0.i64(ptr noundef nonnull align 8 dereferenceable(16) %10, i8 0, i64 16, i1 false), !alias.scope !68
  store float 1.000000e+00, ptr %11, align 8, !alias.scope !68
  %12 = getelementptr inbounds i8, ptr %0, i64 40
  tail call void @llvm.memset.p0.i64(ptr noundef nonnull align 8 dereferenceable(16) %12, i8 0, i64 16, i1 false), !alias.scope !68
  invoke void @_ZN3nix10LocalStore15findRootsNoTempERSt13unordered_mapINS_9StorePathESt13unordered_setINSt7__cxx1112basic_stringIcSt11char_traitsIcESaIcEEESt4hashIS9_ESt8equal_toIS9_ESaIS9_EESA_IS2_ESC_IS2_ESaISt4pairIKS2_SF_EEEb(ptr noundef nonnull align 8 dereferenceable(504) %7, ptr noundef nonnull align 8 dereferenceable(56) %0, i1 noundef zeroext %2)
          to label %13 unwind label %14

13:                                               ; preds = %3
  invoke void @_ZN3nix10LocalStore13findTempRootsERSt13unordered_mapINS_9StorePathESt13unordered_setINSt7__cxx1112basic_stringIcSt11char_traitsIcESaIcEEESt4hashIS9_ESt8equal_toIS9_ESaIS9_EESA_IS2_ESC_IS2_ESaISt4pairIKS2_SF_EEEb(ptr noundef nonnull align 8 dereferenceable(504) %7, ptr noundef nonnull align 8 dereferenceable(56) %0, i1 noundef zeroext %2)
          to label %_ZN3nix10LocalStore9findRootsB5cxx11Eb.exit unwind label %14

14:                                               ; preds = %13, %3
  %15 = landingpad { ptr, i32 }
          cleanup
  tail call void @_ZNSt13unordered_mapIN3nix9StorePathESt13unordered_setINSt7__cxx1112basic_stringIcSt11char_traitsIcESaIcEEESt4hashIS8_ESt8equal_toIS8_ESaIS8_EES9_IS1_ESB_IS1_ESaISt4pairIKS1_SE_EEED2Ev(ptr noundef nonnull align 8 dereferenceable(56) %0) #32
  resume { ptr, i32 } %15

_ZN3nix10LocalStore9findRootsB5cxx11Eb.exit:      ; preds = %13
  ret void
}